; Function Attrs: mustprogress uwtable
define dso_local void @_ZN6btDbvt16optimizeBottomUpEv(ptr noundef nonnull align 8 dereferenceable(64) %this) local_unnamed_addr #2 align 2 personality ptr @__gxx_personality_v0 {
entry:
  %leaves = alloca %class.btAlignedObjectArray.0, align 8
  %0 = load ptr, ptr %this, align 8
  %tobool.not = icmp eq ptr %0, null
  br i1 %tobool.not, label %if.end, label %if.then

if.then:                                          ; preds = %entry
  %m_ownsMemory.i.i = getelementptr inbounds i8, ptr %leaves, i64 24
  store i8 1, ptr %m_ownsMemory.i.i, align 8
  %m_data.i.i = getelementptr inbounds i8, ptr %leaves, i64 16
  store ptr null, ptr %m_data.i.i, align 8
  %m_size.i.i = getelementptr inbounds i8, ptr %leaves, i64 4
  store i32 0, ptr %m_size.i.i, align 4
  %m_capacity.i.i = getelementptr inbounds i8, ptr %leaves, i64 8
  store i32 0, ptr %m_capacity.i.i, align 8
  %m_leaves = getelementptr inbounds i8, ptr %this, i64 20
  %1 = load i32, ptr %m_leaves, align 4
  %cmp.i = icmp sgt i32 %1, 0
  br i1 %cmp.i, label %if.then.i.i, label %invoke.cont

if.then.i.i:                                      ; preds = %if.then
  %conv.i.i.i = zext nneg i32 %1 to i64
  %mul.i.i.i = shl nuw nsw i64 %conv.i.i.i, 3
  %call.i.i.i5 = invoke noundef ptr @_Z22btAlignedAllocInternalmi(i64 noundef %mul.i.i.i, i32 noundef 16)
          to label %_ZN20btAlignedObjectArrayIP10btDbvtNodeE8allocateEi.exit.i unwind label %lpad

_ZN20btAlignedObjectArrayIP10btDbvtNodeE8allocateEi.exit.i: ; preds = %if.then.i.i
  %2 = load i32, ptr %m_size.i.i, align 4
  %cmp4.i.i = icmp sgt i32 %2, 0
  br i1 %cmp4.i.i, label %for.body.lr.ph.i.i, label %_ZNK20btAlignedObjectArrayIP10btDbvtNodeE4copyEiiPS1_.exit.i

for.body.lr.ph.i.i:                               ; preds = %_ZN20btAlignedObjectArrayIP10btDbvtNodeE8allocateEi.exit.i
  %wide.trip.count.i.i = zext nneg i32 %2 to i64
  br label %for.body.i.i

for.body.i.i:                                     ; preds = %for.body.i.i, %for.body.lr.ph.i.i
  %indvars.iv.i.i = phi i64 [ 0, %for.body.lr.ph.i.i ], [ %indvars.iv.next.i.i, %for.body.i.i ]
  %arrayidx.i.i = getelementptr inbounds ptr, ptr %call.i.i.i5, i64 %indvars.iv.i.i
  %3 = load ptr, ptr %m_data.i.i, align 8
  %arrayidx3.i.i = getelementptr inbounds ptr, ptr %3, i64 %indvars.iv.i.i
  %4 = load ptr, ptr %arrayidx3.i.i, align 8
  store ptr %4, ptr %arrayidx.i.i, align 8
  %indvars.iv.next.i.i = add nuw nsw i64 %indvars.iv.i.i, 1
  %exitcond.not.i.i = icmp eq i64 %indvars.iv.next.i.i, %wide.trip.count.i.i
  br i1 %exitcond.not.i.i, label %_ZNK20btAlignedObjectArrayIP10btDbvtNodeE4copyEiiPS1_.exit.i, label %for.body.i.i, !llvm.loop !5

_ZNK20btAlignedObjectArrayIP10btDbvtNodeE4copyEiiPS1_.exit.i: ; preds = %for.body.i.i, %_ZN20btAlignedObjectArrayIP10btDbvtNodeE8allocateEi.exit.i
  %5 = load ptr, ptr %m_data.i.i, align 8
  %tobool.not.i6.i = icmp eq ptr %5, null
  br i1 %tobool.not.i6.i, label %_ZN20btAlignedObjectArrayIP10btDbvtNodeE10deallocateEv.exit.i, label %if.then.i7.i

if.then.i7.i:                                     ; preds = %_ZNK20btAlignedObjectArrayIP10btDbvtNodeE4copyEiiPS1_.exit.i
  %6 = load i8, ptr %m_ownsMemory.i.i, align 8
  %7 = and i8 %6, 1
  %tobool2.not.i.i = icmp eq i8 %7, 0
  br i1 %tobool2.not.i.i, label %_ZN20btAlignedObjectArrayIP10btDbvtNodeE10deallocateEv.exit.i, label %if.then3.i.i

if.then3.i.i:                                     ; preds = %if.then.i7.i
  invoke void @_Z21btAlignedFreeInternalPv(ptr noundef nonnull %5)
          to label %_ZN20btAlignedObjectArrayIP10btDbvtNodeE10deallocateEv.exit.i unwind label %lpad

_ZN20btAlignedObjectArrayIP10btDbvtNodeE10deallocateEv.exit.i: ; preds = %if.then3.i.i, %if.then.i7.i, %_ZNK20btAlignedObjectArrayIP10btDbvtNodeE4copyEiiPS1_.exit.i
  store i8 1, ptr %m_ownsMemory.i.i, align 8
  store ptr %call.i.i.i5, ptr %m_data.i.i, align 8
  store i32 %1, ptr %m_capacity.i.i, align 8
  %.pre = load ptr, ptr %this, align 8
  br label %invoke.cont

invoke.cont:                                      ; preds = %_ZN20btAlignedObjectArrayIP10btDbvtNodeE10deallocateEv.exit.i, %if.then
  %8 = phi ptr [ %.pre, %_ZN20btAlignedObjectArrayIP10btDbvtNodeE10deallocateEv.exit.i ], [ %0, %if.then ]
  invoke fastcc void @_ZL11fetchleavesP6btDbvtP10btDbvtNodeR20btAlignedObjectArrayIS2_Ei(ptr noundef nonnull %this, ptr noundef %8, ptr noundef nonnull align 8 dereferenceable(25) %leaves, i32 noundef -1)
          to label %invoke.cont3 unwind label %lpad

invoke.cont3:                                     ; preds = %invoke.cont
  %9 = load ptr, ptr %m_data.i.i, align 8
  %10 = load i32, ptr %m_size.i.i, align 4
  invoke fastcc void @_ZL8bottomupP6btDbvtPP10btDbvtNodei(ptr noundef nonnull %this, ptr noundef nonnull %9, i32 noundef %10)
          to label %if.then.i.i.i unwind label %lpad

if.then.i.i.i:                                    ; preds = %invoke.cont3
  %11 = load ptr, ptr %m_data.i.i, align 8
  %12 = load ptr, ptr %11, align 8
  store ptr %12, ptr %this, align 8
  %13 = load i8, ptr %m_ownsMemory.i.i, align 8
  %14 = and i8 %13, 1
  %tobool2.not.i.i.i = icmp eq i8 %14, 0
  br i1 %tobool2.not.i.i.i, label %if.end, label %if.then3.i.i.i

if.then3.i.i.i:                                   ; preds = %if.then.i.i.i
  invoke void @_Z21btAlignedFreeInternalPv(ptr noundef nonnull %11)
          to label %if.end unwind label %terminate.lpad.i

terminate.lpad.i:                                 ; preds = %if.then3.i.i.i
  %15 = landingpad { ptr, i32 }
          catch ptr null
  %16 = extractvalue { ptr, i32 } %15, 0
  call void @__clang_call_terminate(ptr %16) #16
  unreachable

lpad:                                             ; preds = %if.then3.i.i, %if.then.i.i, %invoke.cont3, %invoke.cont
  %17 = landingpad { ptr, i32 }
          cleanup
  call void @_ZN20btAlignedObjectArrayIP10btDbvtNodeED2Ev(ptr noundef nonnull align 8 dereferenceable(25) %leaves) #17
  resume { ptr, i32 } %17

if.end:                                           ; preds = %if.then3.i.i.i, %if.then.i.i.i, %entry
  ret void
}